target datalayout = "e-m:e-p270:32:32-p271:32:32-p272:64:64-i64:64-i128:128-f80:128-n8:16:32:64-S128"
target triple = "x86_64-pc-linux-gnu"

@bio_err = external global ptr, align 8
@.str.1 = private unnamed_addr constant [2 x i8] c"\0A\00", align 1
@.str.18 = private unnamed_addr constant [2 x i8] c":\00", align 1
@.str.26 = private unnamed_addr constant [27 x i8] c"../openssl/apps/lib/s_cb.c\00", align 1
@.str.102 = private unnamed_addr constant [22 x i8] c"Protocol version: %s\0A\00", align 1
@.str.103 = private unnamed_addr constant [17 x i8] c"Ciphersuite: %s\0A\00", align 1
@.str.104 = private unnamed_addr constant [19 x i8] c"Peer certificate: \00", align 1
@.str.105 = private unnamed_addr constant [15 x i8] c"Hash used: %s\0A\00", align 1
@.str.106 = private unnamed_addr constant [20 x i8] c"Signature type: %s\0A\00", align 1
@.str.107 = private unnamed_addr constant [26 x i8] c"Peer used raw public key\0A\00", align 1
@.str.108 = private unnamed_addr constant [39 x i8] c"No peer certificate or raw public key\0A\00", align 1
@print_raw_cipherlist.scsv_id = internal constant [2 x i8] c"\00\FF", align 1
@.str.274 = private unnamed_addr constant [27 x i8] c"assertion failed: num == 2\00", align 1
@.str.275 = private unnamed_addr constant [21 x i8] c"Client cipher list: \00", align 1
@.str.276 = private unnamed_addr constant [5 x i8] c"SCSV\00", align 1
@.str.277 = private unnamed_addr constant [3 x i8] c"0x\00", align 1
@.str.278 = private unnamed_addr constant [5 x i8] c"%02X\00", align 1

; Function Attrs: nounwind uwtable
define internal void @print_raw_cipherlist(ptr noundef %0) #0 {
  %2 = alloca ptr, align 8
  %3 = alloca ptr, align 8
  %4 = alloca i64, align 8
  %5 = alloca i64, align 8
  %6 = alloca i64, align 8
  %7 = alloca i32, align 4
  %8 = alloca ptr, align 8
  %9 = alloca i64, align 8
  store ptr %0, ptr %2, align 8, !tbaa !27
  call void @llvm.lifetime.start.p0(i64 8, ptr %3) #10
  call void @llvm.lifetime.start.p0(i64 8, ptr %4) #10
  call void @llvm.lifetime.start.p0(i64 8, ptr %5) #10
  call void @llvm.lifetime.start.p0(i64 8, ptr %6) #10
  %10 = load ptr, ptr %2, align 8, !tbaa !27
  %11 = call i32 @SSL_is_server(ptr noundef %10)
  %12 = icmp ne i32 %11, 0
  br i1 %12, label %14, label %13

13:                                               ; preds = %1
  store i32 1, ptr %7, align 4
  br label %87

14:                                               ; preds = %1
  %15 = load ptr, ptr %2, align 8, !tbaa !27
  %16 = call i64 @SSL_ctrl(ptr noundef %15, i32 noundef 110, i64 noundef 0, ptr noundef null)
  store i64 %16, ptr %6, align 8, !tbaa !38
  %17 = load i64, ptr %6, align 8, !tbaa !38
  %18 = icmp eq i64 %17, 2
  br i1 %18, label %19, label %20

19:                                               ; preds = %14
  br label %22

20:                                               ; preds = %14
  call void @OPENSSL_die(ptr noundef @.str.274, ptr noundef @.str.26, i32 noundef 1209) #11
  unreachable

21:                                               ; No predecessors!
  br label %22

22:                                               ; preds = %21, %19
  %23 = load ptr, ptr %2, align 8, !tbaa !27
  %24 = call i64 @SSL_ctrl(ptr noundef %23, i32 noundef 110, i64 noundef 0, ptr noundef %3)
  store i64 %24, ptr %5, align 8, !tbaa !38
  %25 = load ptr, ptr @bio_err, align 8, !tbaa !14
  %26 = call i32 @BIO_puts(ptr noundef %25, ptr noundef @.str.275)
  store i64 0, ptr %4, align 8, !tbaa !38
  br label %27

27:                                               ; preds = %77, %22
  %28 = load i64, ptr %4, align 8, !tbaa !38
  %29 = load i64, ptr %5, align 8, !tbaa !38
  %30 = icmp ult i64 %28, %29
  br i1 %30, label %31, label %84

31:                                               ; preds = %27
  call void @llvm.lifetime.start.p0(i64 8, ptr %8) #10
  %32 = load ptr, ptr %2, align 8, !tbaa !27
  %33 = load ptr, ptr %3, align 8, !tbaa !21
  %34 = call ptr @SSL_CIPHER_find(ptr noundef %32, ptr noundef %33)
  store ptr %34, ptr %8, align 8, !tbaa !89
  %35 = load i64, ptr %4, align 8, !tbaa !38
  %36 = icmp ne i64 %35, 0
  br i1 %36, label %37, label %40

37:                                               ; preds = %31
  %38 = load ptr, ptr @bio_err, align 8, !tbaa !14
  %39 = call i32 @BIO_puts(ptr noundef %38, ptr noundef @.str.18)
  br label %40

40:                                               ; preds = %37, %31
  %41 = load ptr, ptr %8, align 8, !tbaa !89
  %42 = icmp ne ptr %41, null
  br i1 %42, label %43, label %48

43:                                               ; preds = %40
  %44 = load ptr, ptr @bio_err, align 8, !tbaa !14
  %45 = load ptr, ptr %8, align 8, !tbaa !89
  %46 = call ptr @SSL_CIPHER_get_name(ptr noundef %45)
  %47 = call i32 @BIO_puts(ptr noundef %44, ptr noundef %46)
  br label %76

48:                                               ; preds = %40
  %49 = load ptr, ptr %3, align 8, !tbaa !21
  %50 = load i64, ptr %6, align 8, !tbaa !38
  %51 = call i32 @memcmp(ptr noundef %49, ptr noundef @print_raw_cipherlist.scsv_id, i64 noundef %50) #12
  %52 = icmp eq i32 %51, 0
  br i1 %52, label %53, label %56

53:                                               ; preds = %48
  %54 = load ptr, ptr @bio_err, align 8, !tbaa !14
  %55 = call i32 @BIO_puts(ptr noundef %54, ptr noundef @.str.276)
  br label %75

56:                                               ; preds = %48
  call void @llvm.lifetime.start.p0(i64 8, ptr %9) #10
  %57 = load ptr, ptr @bio_err, align 8, !tbaa !14
  %58 = call i32 @BIO_puts(ptr noundef %57, ptr noundef @.str.277)
  store i64 0, ptr %9, align 8, !tbaa !38
  br label %59

59:                                               ; preds = %71, %56
  %60 = load i64, ptr %9, align 8, !tbaa !38
  %61 = load i64, ptr %6, align 8, !tbaa !38
  %62 = icmp ult i64 %60, %61
  br i1 %62, label %63, label %74

63:                                               ; preds = %59
  %64 = load ptr, ptr @bio_err, align 8, !tbaa !14
  %65 = load ptr, ptr %3, align 8, !tbaa !21
  %66 = load i64, ptr %9, align 8, !tbaa !38
  %67 = getelementptr inbounds nuw i8, ptr %65, i64 %66
  %68 = load i8, ptr %67, align 1, !tbaa !29
  %69 = zext i8 %68 to i32
  %70 = call i32 (ptr, ptr, ...) @BIO_printf(ptr noundef %64, ptr noundef @.str.278, i32 noundef %69)
  br label %71

71:                                               ; preds = %63
  %72 = load i64, ptr %9, align 8, !tbaa !38
  %73 = add i64 %72, 1
  store i64 %73, ptr %9, align 8, !tbaa !38
  br label %59, !llvm.loop !91

74:                                               ; preds = %59
  call void @llvm.lifetime.end.p0(i64 8, ptr %9) #10
  br label %75

75:                                               ; preds = %74, %53
  br label %76

76:                                               ; preds = %75, %43
  call void @llvm.lifetime.end.p0(i64 8, ptr %8) #10
  br label %77

77:                                               ; preds = %76
  %78 = load i64, ptr %6, align 8, !tbaa !38
  %79 = load i64, ptr %4, align 8, !tbaa !38
  %80 = add i64 %79, %78
  store i64 %80, ptr %4, align 8, !tbaa !38
  %81 = load i64, ptr %6, align 8, !tbaa !38
  %82 = load ptr, ptr %3, align 8, !tbaa !21
  %83 = getelementptr inbounds nuw i8, ptr %82, i64 %81
  store ptr %83, ptr %3, align 8, !tbaa !21
  br label %27, !llvm.loop !92

84:                                               ; preds = %27
  %85 = load ptr, ptr @bio_err, align 8, !tbaa !14
  %86 = call i32 @BIO_puts(ptr noundef %85, ptr noundef @.str.1)
  store i32 0, ptr %7, align 4
  br label %87

87:                                               ; preds = %84, %13
  call void @llvm.lifetime.end.p0(i64 8, ptr %6) #10
  call void @llvm.lifetime.end.p0(i64 8, ptr %5) #10
  call void @llvm.lifetime.end.p0(i64 8, ptr %4) #10
  call void @llvm.lifetime.end.p0(i64 8, ptr %3) #10
  %88 = load i32, ptr %7, align 4
  switch i32 %88, label %90 [
    i32 0, label %89
    i32 1, label %89
  ]

89:                                               ; preds = %87, %87
  ret void

90:                                               ; preds = %87
  unreachable
}

; Function Attrs: nounwind uwtable
define void @print_ssl_summary(ptr noundef %0) #0 {
  %2 = alloca ptr, align 8
  %3 = alloca ptr, align 8
  %4 = alloca ptr, align 8
  %5 = alloca ptr, align 8
  %6 = alloca ptr, align 8
  %7 = alloca i32, align 4
  store ptr %0, ptr %2, align 8, !tbaa !27
  call void @llvm.lifetime.start.p0(i64 8, ptr %3) #10
  call void @llvm.lifetime.start.p0(i64 8, ptr %4) #10
  call void @llvm.lifetime.start.p0(i64 8, ptr %5) #10
  %8 = load ptr, ptr %2, align 8, !tbaa !27
  %9 = call ptr @SSL_get0_peer_certificate(ptr noundef %8)
  store ptr %9, ptr %5, align 8, !tbaa !10
  call void @llvm.lifetime.start.p0(i64 8, ptr %6) #10
  %10 = load ptr, ptr %2, align 8, !tbaa !27
  %11 = call ptr @SSL_get0_peer_rpk(ptr noundef %10)
  store ptr %11, ptr %6, align 8, !tbaa !23
  call void @llvm.lifetime.start.p0(i64 4, ptr %7) #10
  %12 = load ptr, ptr @bio_err, align 8, !tbaa !14
  %13 = load ptr, ptr %2, align 8, !tbaa !27
  %14 = call ptr @SSL_get_version(ptr noundef %13)
  %15 = call i32 (ptr, ptr, ...) @BIO_printf(ptr noundef %12, ptr noundef @.str.102, ptr noundef %14)
  %16 = load ptr, ptr %2, align 8, !tbaa !27
  call void @print_raw_cipherlist(ptr noundef %16)
  %17 = load ptr, ptr %2, align 8, !tbaa !27
  %18 = call ptr @SSL_get_current_cipher(ptr noundef %17)
  store ptr %18, ptr %4, align 8, !tbaa !89
  %19 = load ptr, ptr @bio_err, align 8, !tbaa !14
  %20 = load ptr, ptr %4, align 8, !tbaa !89
  %21 = call ptr @SSL_CIPHER_get_name(ptr noundef %20)
  %22 = call i32 (ptr, ptr, ...) @BIO_printf(ptr noundef %19, ptr noundef @.str.103, ptr noundef %21)
  %23 = load ptr, ptr @bio_err, align 8, !tbaa !14
  %24 = load ptr, ptr %2, align 8, !tbaa !27
  %25 = call i32 @do_print_sigalgs(ptr noundef %23, ptr noundef %24, i32 noundef 0)
  %26 = load ptr, ptr %5, align 8, !tbaa !10
  %27 = icmp ne ptr %26, null
  br i1 %27, label %28, label %57

28:                                               ; preds = %1
  %29 = load ptr, ptr @bio_err, align 8, !tbaa !14
  %30 = call i32 @BIO_puts(ptr noundef %29, ptr noundef @.str.104)
  %31 = load ptr, ptr @bio_err, align 8, !tbaa !14
  %32 = load ptr, ptr %5, align 8, !tbaa !10
  %33 = call ptr @X509_get_subject_name(ptr noundef %32)
  %34 = call i64 @get_nameopt()
  %35 = call i32 @X509_NAME_print_ex(ptr noundef %31, ptr noundef %33, i32 noundef 0, i64 noundef %34)
  %36 = load ptr, ptr @bio_err, align 8, !tbaa !14
  %37 = call i32 @BIO_puts(ptr noundef %36, ptr noundef @.str.1)
  %38 = load ptr, ptr %2, align 8, !tbaa !27
  %39 = call i64 @SSL_ctrl(ptr noundef %38, i32 noundef 108, i64 noundef 0, ptr noundef %7)
  %40 = icmp ne i64 %39, 0
  br i1 %40, label %41, label %46

41:                                               ; preds = %28
  %42 = load ptr, ptr @bio_err, align 8, !tbaa !14
  %43 = load i32, ptr %7, align 4, !tbaa !3
  %44 = call ptr @OBJ_nid2sn(i32 noundef %43)
  %45 = call i32 (ptr, ptr, ...) @BIO_printf(ptr noundef %42, ptr noundef @.str.105, ptr noundef %44)
  br label %46

46:                                               ; preds = %41, %28
  %47 = load ptr, ptr %2, align 8, !tbaa !27
  %48 = call i64 @SSL_ctrl(ptr noundef %47, i32 noundef 141, i64 noundef 0, ptr noundef %3)
  %49 = icmp ne i64 %48, 0
  br i1 %49, label %50, label %54

50:                                               ; preds = %46
  %51 = load ptr, ptr @bio_err, align 8, !tbaa !14
  %52 = load ptr, ptr %3, align 8, !tbaa !21
  %53 = call i32 (ptr, ptr, ...) @BIO_printf(ptr noundef %51, ptr noundef @.str.106, ptr noundef %52)
  br label %54

54:                                               ; preds = %50, %46
  %55 = load ptr, ptr %2, align 8, !tbaa !27
  %56 = load ptr, ptr @bio_err, align 8, !tbaa !14
  call void @print_verify_detail(ptr noundef %55, ptr noundef %56)
  br label %77

57:                                               ; preds = %1
  %58 = load ptr, ptr %6, align 8, !tbaa !23
  %59 = icmp ne ptr %58, null
  br i1 %59, label %60, label %73

60:                                               ; preds = %57
  %61 = load ptr, ptr @bio_err, align 8, !tbaa !14
  %62 = call i32 (ptr, ptr, ...) @BIO_printf(ptr noundef %61, ptr noundef @.str.107)
  %63 = load ptr, ptr %2, align 8, !tbaa !27
  %64 = call i64 @SSL_ctrl(ptr noundef %63, i32 noundef 141, i64 noundef 0, ptr noundef %3)
  %65 = icmp ne i64 %64, 0
  br i1 %65, label %66, label %70

66:                                               ; preds = %60
  %67 = load ptr, ptr @bio_err, align 8, !tbaa !14
  %68 = load ptr, ptr %3, align 8, !tbaa !21
  %69 = call i32 (ptr, ptr, ...) @BIO_printf(ptr noundef %67, ptr noundef @.str.106, ptr noundef %68)
  br label %70

70:                                               ; preds = %66, %60
  %71 = load ptr, ptr %2, align 8, !tbaa !27
  %72 = load ptr, ptr @bio_err, align 8, !tbaa !14
  call void @print_verify_detail(ptr noundef %71, ptr noundef %72)
  br label %76

73:                                               ; preds = %57
  %74 = load ptr, ptr @bio_err, align 8, !tbaa !14
  %75 = call i32 @BIO_puts(ptr noundef %74, ptr noundef @.str.108)
  br label %76

76:                                               ; preds = %73, %70
  br label %77

77:                                               ; preds = %76, %54
  %78 = load ptr, ptr @bio_err, align 8, !tbaa !14
  %79 = load ptr, ptr %2, align 8, !tbaa !27
  %80 = call i32 @ssl_print_point_formats(ptr noundef %78, ptr noundef %79)
  %81 = load ptr, ptr %2, align 8, !tbaa !27
  %82 = call i32 @SSL_is_server(ptr noundef %81)
  %83 = icmp ne i32 %82, 0
  br i1 %83, label %84, label %88

84:                                               ; preds = %77
  %85 = load ptr, ptr @bio_err, align 8, !tbaa !14
  %86 = load ptr, ptr %2, align 8, !tbaa !27
  %87 = call i32 @ssl_print_groups(ptr noundef %85, ptr noundef %86, i32 noundef 1)
  br label %88

88:                                               ; preds = %84, %77
  %89 = load ptr, ptr @bio_err, align 8, !tbaa !14
  %90 = load ptr, ptr %2, align 8, !tbaa !27
  %91 = call i32 @ssl_print_tmp_key(ptr noundef %89, ptr noundef %90)
  call void @llvm.lifetime.end.p0(i64 4, ptr %7) #10
  call void @llvm.lifetime.end.p0(i64 8, ptr %6) #10
  call void @llvm.lifetime.end.p0(i64 8, ptr %5) #10
  call void @llvm.lifetime.end.p0(i64 8, ptr %4) #10
  call void @llvm.lifetime.end.p0(i64 8, ptr %3) #10
  ret void
}