; Function Attrs: nounwind uwtable
define void @print_ssl_summary(ptr noundef %0) local_unnamed_addr #0 {
  %2 = alloca ptr, align 8
  %3 = alloca ptr, align 8
  %4 = alloca i32, align 4
  call void @llvm.lifetime.start.p0(i64 8, ptr nonnull %3) #6
  %5 = tail call ptr @SSL_get0_peer_certificate(ptr noundef %0) #6
  %6 = tail call ptr @SSL_get0_peer_rpk(ptr noundef %0) #6
  call void @llvm.lifetime.start.p0(i64 4, ptr nonnull %4) #6
  %7 = load ptr, ptr @bio_err, align 8, !tbaa !8
  %8 = tail call ptr @SSL_get_version(ptr noundef %0) #6
  %9 = tail call i32 (ptr, ptr, ...) @BIO_printf(ptr noundef %7, ptr noundef nonnull @.str.102, ptr noundef %8) #6
  call void @llvm.lifetime.start.p0(i64 8, ptr nonnull %2) #6
  %10 = tail call i32 @SSL_is_server(ptr noundef %0) #6
  %.not.i = icmp eq i32 %10, 0
  br i1 %.not.i, label %print_raw_cipherlist.exit, label %11

11:                                               ; preds = %1
  %12 = tail call i64 @SSL_ctrl(ptr noundef %0, i32 noundef 110, i64 noundef 0, ptr noundef null) #6
  %13 = icmp eq i64 %12, 2
  br i1 %13, label %15, label %14

14:                                               ; preds = %11
  tail call void @OPENSSL_die(ptr noundef nonnull @.str.274, ptr noundef nonnull @.str.26, i32 noundef 1209) #7
  unreachable

15:                                               ; preds = %11
  %16 = call i64 @SSL_ctrl(ptr noundef %0, i32 noundef 110, i64 noundef 0, ptr noundef nonnull %2) #6
  %17 = load ptr, ptr @bio_err, align 8, !tbaa !8
  %18 = call i32 @BIO_puts(ptr noundef %17, ptr noundef nonnull @.str.275) #6
  %.not24.i = icmp eq i64 %16, 0
  br i1 %.not24.i, label %._crit_edge.i, label %.lr.ph.preheader.i

.lr.ph.preheader.i:                               ; preds = %15
  %.pre.i = load ptr, ptr %2, align 8, !tbaa !13
  br label %.lr.ph.i

.lr.ph.i:                                         ; preds = %.loopexit.i, %.lr.ph.preheader.i
  %19 = phi ptr [ %49, %.loopexit.i ], [ %.pre.i, %.lr.ph.preheader.i ]
  %.01723.i = phi i64 [ %47, %.loopexit.i ], [ 0, %.lr.ph.preheader.i ]
  %20 = call ptr @SSL_CIPHER_find(ptr noundef %0, ptr noundef %19) #6
  %.not20.i = icmp eq i64 %.01723.i, 0
  br i1 %.not20.i, label %24, label %21

21:                                               ; preds = %.lr.ph.i
  %22 = load ptr, ptr @bio_err, align 8, !tbaa !8
  %23 = call i32 @BIO_puts(ptr noundef %22, ptr noundef nonnull @.str.18) #6
  br label %24

24:                                               ; preds = %21, %.lr.ph.i
  %.not21.i = icmp eq ptr %20, null
  br i1 %.not21.i, label %29, label %25

25:                                               ; preds = %24
  %26 = load ptr, ptr @bio_err, align 8, !tbaa !8
  %27 = call ptr @SSL_CIPHER_get_name(ptr noundef nonnull %20) #6
  %28 = call i32 @BIO_puts(ptr noundef %26, ptr noundef %27) #6
  br label %.loopexit.i

29:                                               ; preds = %24
  %30 = load ptr, ptr %2, align 8, !tbaa !13
  %bcmp.i = call i32 @bcmp(ptr noundef nonnull dereferenceable(2) %30, ptr noundef nonnull dereferenceable(2) @print_raw_cipherlist.scsv_id, i64 2)
  %31 = icmp eq i32 %bcmp.i, 0
  %32 = load ptr, ptr @bio_err, align 8, !tbaa !8
  br i1 %31, label %33, label %.loopexit.i.critedge

33:                                               ; preds = %29
  %34 = call i32 @BIO_puts(ptr noundef %32, ptr noundef nonnull @.str.276) #6
  br label %.loopexit.i

.loopexit.i.critedge:                             ; preds = %29
  %35 = call i32 @BIO_puts(ptr noundef %32, ptr noundef nonnull @.str.277) #6
  %36 = load ptr, ptr @bio_err, align 8, !tbaa !8
  %37 = load ptr, ptr %2, align 8, !tbaa !13
  %38 = load i8, ptr %37, align 1, !tbaa !15
  %39 = zext i8 %38 to i32
  %40 = call i32 (ptr, ptr, ...) @BIO_printf(ptr noundef %36, ptr noundef nonnull @.str.278, i32 noundef %39) #6
  %41 = load ptr, ptr @bio_err, align 8, !tbaa !8
  %42 = load ptr, ptr %2, align 8, !tbaa !13
  %43 = getelementptr inbounds nuw i8, ptr %42, i64 1
  %44 = load i8, ptr %43, align 1, !tbaa !15
  %45 = zext i8 %44 to i32
  %46 = call i32 (ptr, ptr, ...) @BIO_printf(ptr noundef %41, ptr noundef nonnull @.str.278, i32 noundef %45) #6
  br label %.loopexit.i

.loopexit.i:                                      ; preds = %.loopexit.i.critedge, %33, %25
  %47 = add i64 %.01723.i, 2
  %48 = load ptr, ptr %2, align 8, !tbaa !13
  %49 = getelementptr inbounds nuw i8, ptr %48, i64 2
  store ptr %49, ptr %2, align 8, !tbaa !13
  %50 = icmp ult i64 %47, %16
  br i1 %50, label %.lr.ph.i, label %._crit_edge.i, !llvm.loop !68

._crit_edge.i:                                    ; preds = %.loopexit.i, %15
  %51 = load ptr, ptr @bio_err, align 8, !tbaa !8
  %52 = call i32 @BIO_puts(ptr noundef %51, ptr noundef nonnull @.str.1) #6
  br label %print_raw_cipherlist.exit

print_raw_cipherlist.exit:                        ; preds = %1, %._crit_edge.i
  call void @llvm.lifetime.end.p0(i64 8, ptr nonnull %2) #6
  %53 = call ptr @SSL_get_current_cipher(ptr noundef %0) #6
  %54 = load ptr, ptr @bio_err, align 8, !tbaa !8
  %55 = call ptr @SSL_CIPHER_get_name(ptr noundef %53) #6
  %56 = call i32 (ptr, ptr, ...) @BIO_printf(ptr noundef %54, ptr noundef nonnull @.str.103, ptr noundef %55) #6
  %57 = load ptr, ptr @bio_err, align 8, !tbaa !8
  call fastcc void @do_print_sigalgs(ptr noundef %57, ptr noundef %0, i32 noundef 0)
  %.not = icmp eq ptr %5, null
  br i1 %.not, label %81, label %58

58:                                               ; preds = %print_raw_cipherlist.exit
  %59 = load ptr, ptr @bio_err, align 8, !tbaa !8
  %60 = call i32 @BIO_puts(ptr noundef %59, ptr noundef nonnull @.str.104) #6
  %61 = load ptr, ptr @bio_err, align 8, !tbaa !8
  %62 = call ptr @X509_get_subject_name(ptr noundef nonnull %5) #6
  %63 = call i64 @get_nameopt() #6
  %64 = call i32 @X509_NAME_print_ex(ptr noundef %61, ptr noundef %62, i32 noundef 0, i64 noundef %63) #6
  %65 = load ptr, ptr @bio_err, align 8, !tbaa !8
  %66 = call i32 @BIO_puts(ptr noundef %65, ptr noundef nonnull @.str.1) #6
  %67 = call i64 @SSL_ctrl(ptr noundef %0, i32 noundef 108, i64 noundef 0, ptr noundef nonnull %4) #6
  %.not21 = icmp eq i64 %67, 0
  br i1 %.not21, label %73, label %68

68:                                               ; preds = %58
  %69 = load ptr, ptr @bio_err, align 8, !tbaa !8
  %70 = load i32, ptr %4, align 4, !tbaa !22
  %71 = call ptr @OBJ_nid2sn(i32 noundef %70) #6
  %72 = call i32 (ptr, ptr, ...) @BIO_printf(ptr noundef %69, ptr noundef nonnull @.str.105, ptr noundef %71) #6
  br label %73

73:                                               ; preds = %68, %58
  %74 = call i64 @SSL_ctrl(ptr noundef %0, i32 noundef 141, i64 noundef 0, ptr noundef nonnull %3) #6
  %.not22 = icmp eq i64 %74, 0
  br i1 %.not22, label %79, label %75

75:                                               ; preds = %73
  %76 = load ptr, ptr @bio_err, align 8, !tbaa !8
  %77 = load ptr, ptr %3, align 8, !tbaa !13
  %78 = call i32 (ptr, ptr, ...) @BIO_printf(ptr noundef %76, ptr noundef nonnull @.str.106, ptr noundef %77) #6
  br label %79

79:                                               ; preds = %75, %73
  %80 = load ptr, ptr @bio_err, align 8, !tbaa !8
  call void @print_verify_detail(ptr noundef %0, ptr noundef %80)
  br label %94

81:                                               ; preds = %print_raw_cipherlist.exit
  %.not19 = icmp eq ptr %6, null
  %82 = load ptr, ptr @bio_err, align 8, !tbaa !8
  br i1 %.not19, label %92, label %83

83:                                               ; preds = %81
  %84 = call i32 (ptr, ptr, ...) @BIO_printf(ptr noundef %82, ptr noundef nonnull @.str.107) #6
  %85 = call i64 @SSL_ctrl(ptr noundef %0, i32 noundef 141, i64 noundef 0, ptr noundef nonnull %3) #6
  %.not20 = icmp eq i64 %85, 0
  br i1 %.not20, label %90, label %86

86:                                               ; preds = %83
  %87 = load ptr, ptr @bio_err, align 8, !tbaa !8
  %88 = load ptr, ptr %3, align 8, !tbaa !13
  %89 = call i32 (ptr, ptr, ...) @BIO_printf(ptr noundef %87, ptr noundef nonnull @.str.106, ptr noundef %88) #6
  br label %90

90:                                               ; preds = %86, %83
  %91 = load ptr, ptr @bio_err, align 8, !tbaa !8
  call void @print_verify_detail(ptr noundef %0, ptr noundef %91)
  br label %94

92:                                               ; preds = %81
  %93 = call i32 @BIO_puts(ptr noundef %82, ptr noundef nonnull @.str.108) #6
  br label %94

94:                                               ; preds = %90, %92, %79
  %95 = load ptr, ptr @bio_err, align 8, !tbaa !8
  %96 = call i32 @ssl_print_point_formats(ptr noundef %95, ptr noundef %0)
  %97 = call i32 @SSL_is_server(ptr noundef %0) #6
  %.not23 = icmp eq i32 %97, 0
  br i1 %.not23, label %101, label %98

98:                                               ; preds = %94
  %99 = load ptr, ptr @bio_err, align 8, !tbaa !8
  %100 = call i32 @ssl_print_groups(ptr noundef %99, ptr noundef %0, i32 noundef 1)
  br label %101

101:                                              ; preds = %98, %94
  %102 = load ptr, ptr @bio_err, align 8, !tbaa !8
  %103 = call i32 @ssl_print_tmp_key(ptr noundef %102, ptr noundef %0)
  call void @llvm.lifetime.end.p0(i64 4, ptr nonnull %4) #6
  call void @llvm.lifetime.end.p0(i64 8, ptr nonnull %3) #6
  ret void
}